target datalayout = "e-m:e-p270:32:32-p271:32:32-p272:64:64-i64:64-i128:128-f80:128-n8:16:32:64-S128"
target triple = "x86_64-pc-linux-gnu"

%struct.ForEachState = type { ptr, i32 }
%struct.List = type { i32, i32, i32, ptr, [0 x %union.ListCell] }
%union.ListCell = type { ptr }
%struct.RelOptInfo = type { i32, i32, ptr, double, i8, i8, i8, ptr, ptr, ptr, ptr, ptr, ptr, ptr, ptr, ptr, ptr, i32, i32, i32, i16, i16, ptr, ptr, ptr, ptr, ptr, ptr, ptr, ptr, i32, double, double, ptr, ptr, ptr, i32, i32, i32, i32, i8, ptr, ptr, ptr, ptr, ptr, %struct.QualCost, i32, ptr, i8, i8, ptr, ptr, ptr, ptr, i32, ptr, i8, ptr, ptr, ptr, ptr, ptr, ptr }
%struct.QualCost = type { double, double }
%struct.RestrictInfo = type { i32, ptr, i8, i8, i8, i8, i8, i8, i32, i32, i32, ptr, ptr, ptr, ptr, ptr, ptr, ptr, i32, ptr, %struct.QualCost, double, double, ptr, ptr, ptr, ptr, ptr, ptr, i8, i32, double, double, double, double, i32, i32 }

; Function Attrs: nounwind uwtable
define internal ptr @subbuild_joinrel_restrictlist(ptr noundef %0, ptr noundef %1, ptr noundef %2, ptr noundef %3, ptr noundef %4) #0 {
  %6 = alloca ptr, align 8
  %7 = alloca ptr, align 8
  %8 = alloca ptr, align 8
  %9 = alloca ptr, align 8
  %10 = alloca ptr, align 8
  %11 = alloca ptr, align 8
  %12 = alloca %struct.ForEachState, align 8
  %13 = alloca i32, align 4
  %14 = alloca ptr, align 8
  store ptr %0, ptr %6, align 8
  store ptr %1, ptr %7, align 8
  store ptr %2, ptr %8, align 8
  store ptr %3, ptr %9, align 8
  store ptr %4, ptr %10, align 8
  call void @llvm.lifetime.start.p0(i64 8, ptr %11) #6
  call void @llvm.lifetime.start.p0(i64 16, ptr %12) #6
  %15 = getelementptr inbounds nuw %struct.ForEachState, ptr %12, i32 0, i32 0
  %16 = load ptr, ptr %8, align 8
  %17 = getelementptr inbounds nuw %struct.RelOptInfo, ptr %16, i32 0, i32 48
  %18 = load ptr, ptr %17, align 8
  store ptr %18, ptr %15, align 8
  %19 = getelementptr inbounds nuw %struct.ForEachState, ptr %12, i32 0, i32 1
  store i32 0, ptr %19, align 8
  %20 = getelementptr i8, ptr %12, i64 12
  call void @llvm.memset.p0.i64(ptr align 4 %20, i8 0, i64 4, i1 false)
  br label %21

21:                                               ; preds = %92, %5
  %22 = getelementptr inbounds nuw %struct.ForEachState, ptr %12, i32 0, i32 0
  %23 = load ptr, ptr %22, align 8
  %24 = icmp ne ptr %23, null
  br i1 %24, label %25, label %42

25:                                               ; preds = %21
  %26 = getelementptr inbounds nuw %struct.ForEachState, ptr %12, i32 0, i32 1
  %27 = load i32, ptr %26, align 8
  %28 = getelementptr inbounds nuw %struct.ForEachState, ptr %12, i32 0, i32 0
  %29 = load ptr, ptr %28, align 8
  %30 = getelementptr inbounds nuw %struct.List, ptr %29, i32 0, i32 1
  %31 = load i32, ptr %30, align 4
  %32 = icmp slt i32 %27, %31
  br i1 %32, label %33, label %42

33:                                               ; preds = %25
  %34 = getelementptr inbounds nuw %struct.ForEachState, ptr %12, i32 0, i32 0
  %35 = load ptr, ptr %34, align 8
  %36 = getelementptr inbounds nuw %struct.List, ptr %35, i32 0, i32 3
  %37 = load ptr, ptr %36, align 8
  %38 = getelementptr inbounds nuw %struct.ForEachState, ptr %12, i32 0, i32 1
  %39 = load i32, ptr %38, align 8
  %40 = sext i32 %39 to i64
  %41 = getelementptr inbounds %union.ListCell, ptr %37, i64 %40
  store ptr %41, ptr %11, align 8
  br label %43

42:                                               ; preds = %25, %21
  store ptr null, ptr %11, align 8
  br label %43

43:                                               ; preds = %42, %33
  %44 = phi i32 [ 1, %33 ], [ 0, %42 ]
  %45 = icmp ne i32 %44, 0
  br i1 %45, label %47, label %46

46:                                               ; preds = %43
  store i32 2, ptr %13, align 4
  call void @llvm.lifetime.end.p0(i64 16, ptr %12) #6
  br label %96

47:                                               ; preds = %43
  call void @llvm.lifetime.start.p0(i64 8, ptr %14) #6
  %48 = load ptr, ptr %11, align 8
  %49 = load ptr, ptr %48, align 8
  store ptr %49, ptr %14, align 8
  %50 = load ptr, ptr %14, align 8
  %51 = getelementptr inbounds nuw %struct.RestrictInfo, ptr %50, i32 0, i32 12
  %52 = load ptr, ptr %51, align 8
  %53 = load ptr, ptr %7, align 8
  %54 = getelementptr inbounds nuw %struct.RelOptInfo, ptr %53, i32 0, i32 2
  %55 = load ptr, ptr %54, align 8
  %56 = call zeroext i1 @bms_is_subset(ptr noundef %52, ptr noundef %55)
  br i1 %56, label %57, label %87

57:                                               ; preds = %47
  %58 = load ptr, ptr %14, align 8
  %59 = getelementptr inbounds nuw %struct.RestrictInfo, ptr %58, i32 0, i32 5
  %60 = load i8, ptr %59, align 1, !range !7, !noundef !8
  %61 = trunc i8 %60 to i1
  br i1 %61, label %67, label %62

62:                                               ; preds = %57
  %63 = load ptr, ptr %14, align 8
  %64 = getelementptr inbounds nuw %struct.RestrictInfo, ptr %63, i32 0, i32 6
  %65 = load i8, ptr %64, align 4, !range !7, !noundef !8
  %66 = trunc i8 %65 to i1
  br i1 %66, label %67, label %82

67:                                               ; preds = %62, %57
  %68 = load ptr, ptr %14, align 8
  %69 = getelementptr inbounds nuw %struct.RestrictInfo, ptr %68, i32 0, i32 12
  %70 = load ptr, ptr %69, align 8
  %71 = load ptr, ptr %9, align 8
  %72 = call zeroext i1 @bms_is_subset(ptr noundef %70, ptr noundef %71)
  br i1 %72, label %74, label %73

73:                                               ; preds = %67
  store i32 4, ptr %13, align 4
  br label %89

74:                                               ; preds = %67
  %75 = load ptr, ptr %14, align 8
  %76 = getelementptr inbounds nuw %struct.RestrictInfo, ptr %75, i32 0, i32 13
  %77 = load ptr, ptr %76, align 8
  %78 = load ptr, ptr %9, align 8
  %79 = call zeroext i1 @bms_overlap(ptr noundef %77, ptr noundef %78)
  br i1 %79, label %80, label %81

80:                                               ; preds = %74
  store i32 4, ptr %13, align 4
  br label %89

81:                                               ; preds = %74
  br label %83

82:                                               ; preds = %62
  br label %83

83:                                               ; preds = %82, %81
  %84 = load ptr, ptr %10, align 8
  %85 = load ptr, ptr %14, align 8
  %86 = call ptr @list_append_unique_ptr(ptr noundef %84, ptr noundef %85)
  store ptr %86, ptr %10, align 8
  br label %88

87:                                               ; preds = %47
  br label %88

88:                                               ; preds = %87, %83
  store i32 0, ptr %13, align 4
  br label %89

89:                                               ; preds = %88, %80, %73
  call void @llvm.lifetime.end.p0(i64 8, ptr %14) #6
  %90 = load i32, ptr %13, align 4
  switch i32 %90, label %98 [
    i32 0, label %91
    i32 4, label %92
  ]

91:                                               ; preds = %89
  br label %92

92:                                               ; preds = %91, %89
  %93 = getelementptr inbounds nuw %struct.ForEachState, ptr %12, i32 0, i32 1
  %94 = load i32, ptr %93, align 8
  %95 = add i32 %94, 1
  store i32 %95, ptr %93, align 8
  br label %21, !llvm.loop !24

96:                                               ; preds = %46
  %97 = load ptr, ptr %10, align 8
  store i32 1, ptr %13, align 4
  call void @llvm.lifetime.end.p0(i64 8, ptr %11) #6
  ret ptr %97

98:                                               ; preds = %89
  unreachable
}

; Function Attrs: nounwind uwtable
define internal ptr @build_joinrel_restrictlist(ptr noundef %0, ptr noundef %1, ptr noundef %2, ptr noundef %3, ptr noundef %4) #0 {
  %6 = alloca ptr, align 8
  %7 = alloca ptr, align 8
  %8 = alloca ptr, align 8
  %9 = alloca ptr, align 8
  %10 = alloca ptr, align 8
  %11 = alloca ptr, align 8
  %12 = alloca ptr, align 8
  store ptr %0, ptr %6, align 8
  store ptr %1, ptr %7, align 8
  store ptr %2, ptr %8, align 8
  store ptr %3, ptr %9, align 8
  store ptr %4, ptr %10, align 8
  call void @llvm.lifetime.start.p0(i64 8, ptr %11) #6
  call void @llvm.lifetime.start.p0(i64 8, ptr %12) #6
  %13 = load ptr, ptr %8, align 8
  %14 = getelementptr inbounds nuw %struct.RelOptInfo, ptr %13, i32 0, i32 2
  %15 = load ptr, ptr %14, align 8
  %16 = load ptr, ptr %9, align 8
  %17 = getelementptr inbounds nuw %struct.RelOptInfo, ptr %16, i32 0, i32 2
  %18 = load ptr, ptr %17, align 8
  %19 = call ptr @bms_union(ptr noundef %15, ptr noundef %18)
  store ptr %19, ptr %12, align 8
  %20 = load ptr, ptr %6, align 8
  %21 = load ptr, ptr %7, align 8
  %22 = load ptr, ptr %8, align 8
  %23 = load ptr, ptr %12, align 8
  %24 = call ptr @subbuild_joinrel_restrictlist(ptr noundef %20, ptr noundef %21, ptr noundef %22, ptr noundef %23, ptr noundef null)
  store ptr %24, ptr %11, align 8
  %25 = load ptr, ptr %6, align 8
  %26 = load ptr, ptr %7, align 8
  %27 = load ptr, ptr %9, align 8
  %28 = load ptr, ptr %12, align 8
  %29 = load ptr, ptr %11, align 8
  %30 = call ptr @subbuild_joinrel_restrictlist(ptr noundef %25, ptr noundef %26, ptr noundef %27, ptr noundef %28, ptr noundef %29)
  store ptr %30, ptr %11, align 8
  %31 = load ptr, ptr %11, align 8
  %32 = load ptr, ptr %6, align 8
  %33 = load ptr, ptr %7, align 8
  %34 = getelementptr inbounds nuw %struct.RelOptInfo, ptr %33, i32 0, i32 2
  %35 = load ptr, ptr %34, align 8
  %36 = load ptr, ptr %8, align 8
  %37 = getelementptr inbounds nuw %struct.RelOptInfo, ptr %36, i32 0, i32 2
  %38 = load ptr, ptr %37, align 8
  %39 = load ptr, ptr %9, align 8
  %40 = load ptr, ptr %10, align 8
  %41 = call ptr @generate_join_implied_equalities(ptr noundef %32, ptr noundef %35, ptr noundef %38, ptr noundef %39, ptr noundef %40)
  %42 = call ptr @list_concat(ptr noundef %31, ptr noundef %41)
  store ptr %42, ptr %11, align 8
  %43 = load ptr, ptr %11, align 8
  call void @llvm.lifetime.end.p0(i64 8, ptr %12) #6
  call void @llvm.lifetime.end.p0(i64 8, ptr %11) #6
  ret ptr %43
}