; Function Attrs: nounwind uwtable
define internal fastcc ptr @build_joinrel_restrictlist(ptr noundef %0, ptr noundef readonly captures(none) %1, ptr noundef readonly captures(none) %2, ptr noundef %3, ptr noundef %4) unnamed_addr #0 {
  %6 = getelementptr inbounds nuw i8, ptr %2, i64 8
  %7 = load ptr, ptr %6, align 8
  %8 = getelementptr inbounds nuw i8, ptr %3, i64 8
  %9 = load ptr, ptr %8, align 8
  %10 = tail call ptr @bms_union(ptr noundef %7, ptr noundef %9) #7
  %11 = getelementptr i8, ptr %2, i64 328
  %.val = load ptr, ptr %11, align 8
  %12 = getelementptr inbounds nuw i8, ptr %.val, i64 4
  %.not.i = icmp eq ptr %.val, null
  br i1 %.not.i, label %subbuild_joinrel_restrictlist.exit, label %.lr.ph.i

.lr.ph.i:                                         ; preds = %5
  %13 = getelementptr inbounds nuw i8, ptr %.val, i64 16
  %14 = getelementptr inbounds nuw i8, ptr %1, i64 8
  %15 = load i32, ptr %12, align 4
  %16 = icmp sgt i32 %15, 0
  br i1 %16, label %.lr.ph10.i, label %subbuild_joinrel_restrictlist.exit

.lr.ph10.i:                                       ; preds = %.lr.ph.i, %41
  %indvars.iv.i = phi i64 [ %indvars.iv.next.i, %41 ], [ 0, %.lr.ph.i ]
  %.048.i = phi ptr [ %.1.i, %41 ], [ null, %.lr.ph.i ]
  %17 = load ptr, ptr %13, align 8
  %18 = getelementptr inbounds nuw %union.ListCell, ptr %17, i64 %indvars.iv.i
  %19 = load ptr, ptr %18, align 8
  %20 = getelementptr inbounds nuw i8, ptr %19, i64 48
  %21 = load ptr, ptr %20, align 8
  %22 = load ptr, ptr %14, align 8
  %23 = tail call zeroext i1 @bms_is_subset(ptr noundef %21, ptr noundef %22) #7
  br i1 %23, label %24, label %41

24:                                               ; preds = %.lr.ph10.i
  %25 = getelementptr inbounds nuw i8, ptr %19, i64 19
  %26 = load i8, ptr %25, align 1, !range !4, !noundef !5
  %27 = trunc nuw i8 %26 to i1
  br i1 %27, label %32, label %28

28:                                               ; preds = %24
  %29 = getelementptr inbounds nuw i8, ptr %19, i64 20
  %30 = load i8, ptr %29, align 4, !range !4, !noundef !5
  %31 = trunc nuw i8 %30 to i1
  br i1 %31, label %32, label %39

32:                                               ; preds = %28, %24
  %33 = load ptr, ptr %20, align 8
  %34 = tail call zeroext i1 @bms_is_subset(ptr noundef %33, ptr noundef %10) #7
  br i1 %34, label %35, label %41

35:                                               ; preds = %32
  %36 = getelementptr inbounds nuw i8, ptr %19, i64 56
  %37 = load ptr, ptr %36, align 8
  %38 = tail call zeroext i1 @bms_overlap(ptr noundef %37, ptr noundef %10) #7
  br i1 %38, label %41, label %39

39:                                               ; preds = %35, %28
  %40 = tail call ptr @list_append_unique_ptr(ptr noundef %.048.i, ptr noundef nonnull %19) #7
  br label %41

41:                                               ; preds = %39, %35, %32, %.lr.ph10.i
  %.1.i = phi ptr [ %.048.i, %32 ], [ %.048.i, %35 ], [ %40, %39 ], [ %.048.i, %.lr.ph10.i ]
  %indvars.iv.next.i = add nuw nsw i64 %indvars.iv.i, 1
  %42 = load i32, ptr %12, align 4
  %43 = sext i32 %42 to i64
  %44 = icmp slt i64 %indvars.iv.next.i, %43
  br i1 %44, label %.lr.ph10.i, label %subbuild_joinrel_restrictlist.exit

subbuild_joinrel_restrictlist.exit:               ; preds = %41, %5, %.lr.ph.i
  %.0.lcssa.i = phi ptr [ null, %5 ], [ null, %.lr.ph.i ], [ %.1.i, %41 ]
  %45 = getelementptr i8, ptr %3, i64 328
  %.val18 = load ptr, ptr %45, align 8
  %46 = getelementptr inbounds nuw i8, ptr %.val18, i64 4
  %.not.i19 = icmp eq ptr %.val18, null
  br i1 %.not.i19, label %subbuild_joinrel_restrictlist.exit27, label %.lr.ph.i20

.lr.ph.i20:                                       ; preds = %subbuild_joinrel_restrictlist.exit
  %47 = getelementptr inbounds nuw i8, ptr %.val18, i64 16
  %48 = getelementptr inbounds nuw i8, ptr %1, i64 8
  %49 = load i32, ptr %46, align 4
  %50 = icmp sgt i32 %49, 0
  br i1 %50, label %.lr.ph10.i22, label %subbuild_joinrel_restrictlist.exit27

.lr.ph10.i22:                                     ; preds = %.lr.ph.i20, %75
  %indvars.iv.i23 = phi i64 [ %indvars.iv.next.i26, %75 ], [ 0, %.lr.ph.i20 ]
  %.048.i24 = phi ptr [ %.1.i25, %75 ], [ %.0.lcssa.i, %.lr.ph.i20 ]
  %51 = load ptr, ptr %47, align 8
  %52 = getelementptr inbounds nuw %union.ListCell, ptr %51, i64 %indvars.iv.i23
  %53 = load ptr, ptr %52, align 8
  %54 = getelementptr inbounds nuw i8, ptr %53, i64 48
  %55 = load ptr, ptr %54, align 8
  %56 = load ptr, ptr %48, align 8
  %57 = tail call zeroext i1 @bms_is_subset(ptr noundef %55, ptr noundef %56) #7
  br i1 %57, label %58, label %75

58:                                               ; preds = %.lr.ph10.i22
  %59 = getelementptr inbounds nuw i8, ptr %53, i64 19
  %60 = load i8, ptr %59, align 1, !range !4, !noundef !5
  %61 = trunc nuw i8 %60 to i1
  br i1 %61, label %66, label %62

62:                                               ; preds = %58
  %63 = getelementptr inbounds nuw i8, ptr %53, i64 20
  %64 = load i8, ptr %63, align 4, !range !4, !noundef !5
  %65 = trunc nuw i8 %64 to i1
  br i1 %65, label %66, label %73

66:                                               ; preds = %62, %58
  %67 = load ptr, ptr %54, align 8
  %68 = tail call zeroext i1 @bms_is_subset(ptr noundef %67, ptr noundef %10) #7
  br i1 %68, label %69, label %75

69:                                               ; preds = %66
  %70 = getelementptr inbounds nuw i8, ptr %53, i64 56
  %71 = load ptr, ptr %70, align 8
  %72 = tail call zeroext i1 @bms_overlap(ptr noundef %71, ptr noundef %10) #7
  br i1 %72, label %75, label %73

73:                                               ; preds = %69, %62
  %74 = tail call ptr @list_append_unique_ptr(ptr noundef %.048.i24, ptr noundef nonnull %53) #7
  br label %75

75:                                               ; preds = %73, %69, %66, %.lr.ph10.i22
  %.1.i25 = phi ptr [ %.048.i24, %66 ], [ %.048.i24, %69 ], [ %74, %73 ], [ %.048.i24, %.lr.ph10.i22 ]
  %indvars.iv.next.i26 = add nuw nsw i64 %indvars.iv.i23, 1
  %76 = load i32, ptr %46, align 4
  %77 = sext i32 %76 to i64
  %78 = icmp slt i64 %indvars.iv.next.i26, %77
  br i1 %78, label %.lr.ph10.i22, label %subbuild_joinrel_restrictlist.exit27

subbuild_joinrel_restrictlist.exit27:             ; preds = %75, %subbuild_joinrel_restrictlist.exit, %.lr.ph.i20
  %.0.lcssa.i21 = phi ptr [ %.0.lcssa.i, %subbuild_joinrel_restrictlist.exit ], [ %.0.lcssa.i, %.lr.ph.i20 ], [ %.1.i25, %75 ]
  %79 = getelementptr inbounds nuw i8, ptr %1, i64 8
  %80 = load ptr, ptr %79, align 8
  %81 = load ptr, ptr %6, align 8
  %82 = tail call ptr @generate_join_implied_equalities(ptr noundef %0, ptr noundef %80, ptr noundef %81, ptr noundef %3, ptr noundef %4) #7
  %83 = tail call ptr @list_concat(ptr noundef %.0.lcssa.i21, ptr noundef %82) #7
  ret ptr %83
}